target datalayout = "e-m:e-p270:32:32-p271:32:32-p272:64:64-i64:64-i128:128-f80:128-n8:16:32:64-S128"
target triple = "x86_64-pc-linux-gnu"

%struct.PaUtilStreamRepresentation = type { i64, ptr, ptr, ptr, ptr, ptr, %struct.PaStreamInfo }
%struct.PaStreamInfo = type { i32, double, double, double }
%struct.PaUtilStreamInterface = type { ptr, ptr, ptr, ptr, ptr, ptr, ptr, ptr, ptr, ptr, ptr, ptr }

@initializationCount_ = internal global i32 0, align 4

; Function Attrs: nounwind uwtable
define i32 @PaUtil_ValidateStreamPointer(ptr noundef %0) #0 {
  %2 = alloca i32, align 4
  %3 = alloca ptr, align 8
  store ptr %0, ptr %3, align 8
  %4 = load i32, ptr @initializationCount_, align 4
  %5 = icmp ne i32 %4, 0
  br i1 %5, label %7, label %6

6:                                                ; preds = %1
  store i32 -10000, ptr %2, align 4
  br label %18

7:                                                ; preds = %1
  %8 = load ptr, ptr %3, align 8
  %9 = icmp eq ptr %8, null
  br i1 %9, label %10, label %11

10:                                               ; preds = %7
  store i32 -9988, ptr %2, align 4
  br label %18

11:                                               ; preds = %7
  %12 = load ptr, ptr %3, align 8
  %13 = getelementptr inbounds nuw %struct.PaUtilStreamRepresentation, ptr %12, i32 0, i32 0
  %14 = load i64, ptr %13, align 8
  %15 = icmp ne i64 %14, 405222981
  br i1 %15, label %16, label %17

16:                                               ; preds = %11
  store i32 -9988, ptr %2, align 4
  br label %18

17:                                               ; preds = %11
  store i32 0, ptr %2, align 4
  br label %18

18:                                               ; preds = %17, %16, %10, %6
  %19 = load i32, ptr %2, align 4
  ret i32 %19
}

; Function Attrs: nounwind uwtable
define i32 @Pa_IsStreamActive(ptr noundef %0) #0 {
  %2 = alloca ptr, align 8
  %3 = alloca i32, align 4
  store ptr %0, ptr %2, align 8
  %4 = load ptr, ptr %2, align 8
  %5 = call i32 @PaUtil_ValidateStreamPointer(ptr noundef %4)
  store i32 %5, ptr %3, align 4
  %6 = load i32, ptr %3, align 4
  %7 = icmp eq i32 %6, 0
  br i1 %7, label %8, label %16

8:                                                ; preds = %1
  %9 = load ptr, ptr %2, align 8
  %10 = getelementptr inbounds nuw %struct.PaUtilStreamRepresentation, ptr %9, i32 0, i32 2
  %11 = load ptr, ptr %10, align 8
  %12 = getelementptr inbounds nuw %struct.PaUtilStreamInterface, ptr %11, i32 0, i32 5
  %13 = load ptr, ptr %12, align 8
  %14 = load ptr, ptr %2, align 8
  %15 = call i32 %13(ptr noundef %14)
  store i32 %15, ptr %3, align 4
  br label %16

16:                                               ; preds = %8, %1
  %17 = load i32, ptr %3, align 4
  ret i32 %17
}